target datalayout = "e-m:e-p270:32:32-p271:32:32-p272:64:64-i64:64-i128:128-f80:128-n8:16:32:64-S128"
target triple = "x86_64-pc-linux-gnu"

%struct._zend_executor_globals = type { %struct._zval_struct, %struct._zval_struct, [32 x ptr], ptr, ptr, %struct._zend_array, %struct._zend_array, ptr, i32, i32, ptr, ptr, ptr, ptr, ptr, ptr, i64, ptr, ptr, i32, i32, i64, i32, i32, i32, i8, i8, %struct.zend_atomic_bool_s, %struct.zend_atomic_bool_s, ptr, i64, ptr, ptr, %struct._zend_array, %struct._zend_array, i32, i8, %struct._zval_struct, %struct._zval_struct, %struct._zend_stack, %struct._zend_stack, %struct._zend_stack, ptr, i32, i32, i64, ptr, ptr, ptr, %struct._zend_objects_store, ptr, ptr, ptr, [3 x %struct._zend_op], ptr, i8, i8, i64, i32, i32, ptr, [16 x %struct._HashTableIterator], ptr, %union._zend_function, %struct._zend_op, %struct._zend_array, i64, %struct.zend_get_gc_buffer, ptr, ptr, ptr, i64, i8, i32, ptr, ptr, i64, %struct._zend_call_stack, i64, i64, [6 x ptr] }
%struct.zend_atomic_bool_s = type { i8 }
%struct._zval_struct = type { %union._zend_value, %union.anon, %union.anon.2 }
%union._zend_value = type { i64 }
%union.anon = type { i32 }
%union.anon.2 = type { i32 }
%struct._zend_stack = type { i32, i32, i32, ptr }
%struct._zend_objects_store = type { ptr, i32, i32, i32 }
%struct._HashTableIterator = type { ptr, i32, i32 }
%union._zend_function = type { %struct._zend_op_array }
%struct._zend_op_array = type { i8, [3 x i8], i32, ptr, ptr, ptr, i32, i32, ptr, ptr, ptr, ptr, i32, i32, i32, i32, ptr, ptr, ptr, ptr, ptr, i32, i32, ptr, ptr, ptr, i32, i32, i32, i32, ptr, ptr, [6 x ptr] }
%struct._zend_op = type { ptr, %union._znode_op, %union._znode_op, %union._znode_op, i32, i32, i8, i8, i8, i8 }
%union._znode_op = type { i32 }
%struct._zend_array = type { %struct._zend_refcounted_h, %union.anon.4, i32, %union.anon.6, i32, i32, i32, i32, i64, ptr }
%struct._zend_refcounted_h = type { i32, %union.anon.3 }
%union.anon.3 = type { i32 }
%union.anon.4 = type { i32 }
%union.anon.6 = type { ptr }
%struct.zend_get_gc_buffer = type { ptr, ptr, ptr }
%struct._zend_call_stack = type { ptr, i64 }
%struct._zend_execute_data = type { ptr, ptr, ptr, ptr, %struct._zval_struct, ptr, ptr, ptr, ptr }
%struct._zend_string = type { %struct._zend_refcounted_h, i64, i64, [1 x i8] }
%struct._zend_constant = type { %struct._zval_struct, ptr }

@executor_globals = external global %struct._zend_executor_globals, align 8
@.str.2 = private unnamed_addr constant [24 x i8] c"Undefined constant \22%s\22\00", align 1
@.str.3 = private unnamed_addr constant [26 x i8] c"Constant %s is deprecated\00", align 1

; Function Attrs: nounwind uwtable
define hidden ptr @zend_jit_check_constant(ptr noundef %0) #0 {
  %2 = alloca ptr, align 8
  %3 = alloca ptr, align 8
  %4 = alloca ptr, align 8
  %5 = alloca i32, align 4
  %6 = alloca i32, align 4
  %7 = alloca ptr, align 8
  %8 = alloca ptr, align 8
  %9 = alloca ptr, align 8
  %10 = alloca ptr, align 8
  %11 = alloca ptr, align 8
  store ptr %0, ptr %11, align 8
  %12 = load ptr, ptr %11, align 8
  store ptr %12, ptr %4, align 8
  store i32 0, ptr %5, align 4
  store i32 1, ptr %6, align 4
  %13 = load ptr, ptr getelementptr inbounds (%struct._zend_executor_globals, ptr @executor_globals, i32 0, i32 17), align 8
  store ptr %13, ptr %7, align 8
  %14 = load ptr, ptr %7, align 8
  %15 = load ptr, ptr %14, align 8
  store ptr %15, ptr %8, align 8
  store ptr null, ptr %10, align 8
  %16 = load ptr, ptr getelementptr inbounds (%struct._zend_executor_globals, ptr @executor_globals, i32 0, i32 12), align 8
  %17 = load ptr, ptr %4, align 8
  %18 = load ptr, ptr %17, align 8
  %19 = call ptr @zend_hash_find_known_hash(ptr noundef %16, ptr noundef %18) #4
  store ptr %19, ptr %9, align 8
  %20 = load ptr, ptr %9, align 8
  %21 = icmp ne ptr %20, null
  br i1 %21, label %22, label %25

22:                                               ; preds = %1
  %23 = load ptr, ptr %9, align 8
  %24 = load ptr, ptr %23, align 8
  store ptr %24, ptr %10, align 8
  br label %43

25:                                               ; preds = %1
  %26 = load i32, ptr %5, align 4
  %27 = and i32 %26, 2048
  %28 = icmp ne i32 %27, 0
  br i1 %28, label %29, label %42

29:                                               ; preds = %25
  %30 = load ptr, ptr %4, align 8
  %31 = getelementptr inbounds %struct._zval_struct, ptr %30, i32 1
  store ptr %31, ptr %4, align 8
  %32 = load ptr, ptr getelementptr inbounds (%struct._zend_executor_globals, ptr @executor_globals, i32 0, i32 12), align 8
  %33 = load ptr, ptr %4, align 8
  %34 = load ptr, ptr %33, align 8
  %35 = call ptr @zend_hash_find_known_hash(ptr noundef %32, ptr noundef %34) #4
  store ptr %35, ptr %9, align 8
  %36 = load ptr, ptr %9, align 8
  %37 = icmp ne ptr %36, null
  br i1 %37, label %38, label %41

38:                                               ; preds = %29
  %39 = load ptr, ptr %9, align 8
  %40 = load ptr, ptr %39, align 8
  store ptr %40, ptr %10, align 8
  br label %41

41:                                               ; preds = %38, %29
  br label %42

42:                                               ; preds = %41, %25
  br label %43

43:                                               ; preds = %42, %22
  %44 = load ptr, ptr %10, align 8
  %45 = icmp ne ptr %44, null
  br i1 %45, label %82, label %46

46:                                               ; preds = %43
  %47 = load i32, ptr %6, align 4
  %48 = icmp ne i32 %47, 0
  br i1 %48, label %65, label %49

49:                                               ; preds = %46
  %50 = load ptr, ptr %8, align 8
  %51 = load ptr, ptr %8, align 8
  %52 = getelementptr inbounds %struct._zend_op, ptr %51, i32 0, i32 2
  %53 = load i32, ptr %52, align 4
  %54 = sext i32 %53 to i64
  %55 = getelementptr inbounds i8, ptr %50, i64 %54
  %56 = load ptr, ptr %55, align 8
  %57 = getelementptr inbounds %struct._zend_string, ptr %56, i32 0, i32 3
  call void (ptr, ptr, ...) @zend_throw_error(ptr noundef null, ptr noundef @.str.2, ptr noundef %57) #4
  %58 = load ptr, ptr %7, align 8
  %59 = load ptr, ptr %8, align 8
  %60 = getelementptr inbounds %struct._zend_op, ptr %59, i32 0, i32 3
  %61 = load i32, ptr %60, align 8
  %62 = sext i32 %61 to i64
  %63 = getelementptr inbounds i8, ptr %58, i64 %62
  %64 = getelementptr inbounds %struct._zval_struct, ptr %63, i32 0, i32 1
  store i32 0, ptr %64, align 8
  br label %65

65:                                               ; preds = %49, %46
  %66 = load ptr, ptr getelementptr inbounds (%struct._zend_executor_globals, ptr @executor_globals, i32 0, i32 12), align 8
  store ptr %66, ptr %2, align 8
  %67 = load ptr, ptr %2, align 8
  %68 = getelementptr inbounds %struct._zend_array, ptr %67, i32 0, i32 5
  %69 = load i32, ptr %68, align 4
  %70 = zext i32 %69 to i64
  %71 = shl i64 %70, 1
  %72 = or i64 %71, 1
  %73 = inttoptr i64 %72 to ptr
  %74 = load ptr, ptr %7, align 8
  %75 = getelementptr inbounds %struct._zend_execute_data, ptr %74, i32 0, i32 7
  %76 = load ptr, ptr %75, align 8
  %77 = load ptr, ptr %8, align 8
  %78 = getelementptr inbounds %struct._zend_op, ptr %77, i32 0, i32 4
  %79 = load i32, ptr %78, align 4
  %80 = zext i32 %79 to i64
  %81 = getelementptr inbounds i8, ptr %76, i64 %80
  store ptr %73, ptr %81, align 8
  store ptr null, ptr %3, align 8
  br label %114

82:                                               ; preds = %43
  %83 = load i32, ptr %6, align 4
  %84 = icmp ne i32 %83, 0
  br i1 %84, label %103, label %85

85:                                               ; preds = %82
  %86 = load ptr, ptr %10, align 8
  %87 = getelementptr inbounds %struct._zval_struct, ptr %86, i32 0, i32 2
  %88 = load i32, ptr %87, align 4
  %89 = and i32 %88, 255
  %90 = and i32 %89, 4
  %91 = icmp ne i32 %90, 0
  br i1 %91, label %92, label %102

92:                                               ; preds = %85
  %93 = load ptr, ptr %10, align 8
  %94 = getelementptr inbounds %struct._zend_constant, ptr %93, i32 0, i32 1
  %95 = load ptr, ptr %94, align 8
  %96 = getelementptr inbounds %struct._zend_string, ptr %95, i32 0, i32 3
  call void (i32, ptr, ...) @zend_error(i32 noundef 8192, ptr noundef @.str.3, ptr noundef %96) #4
  %97 = load ptr, ptr getelementptr inbounds (%struct._zend_executor_globals, ptr @executor_globals, i32 0, i32 50), align 8
  %98 = icmp ne ptr %97, null
  br i1 %98, label %99, label %100

99:                                               ; preds = %92
  store ptr null, ptr %3, align 8
  br label %114

100:                                              ; preds = %92
  %101 = load ptr, ptr %10, align 8
  store ptr %101, ptr %3, align 8
  br label %114

102:                                              ; preds = %85
  br label %103

103:                                              ; preds = %102, %82
  %104 = load ptr, ptr %10, align 8
  %105 = load ptr, ptr %7, align 8
  %106 = getelementptr inbounds %struct._zend_execute_data, ptr %105, i32 0, i32 7
  %107 = load ptr, ptr %106, align 8
  %108 = load ptr, ptr %8, align 8
  %109 = getelementptr inbounds %struct._zend_op, ptr %108, i32 0, i32 4
  %110 = load i32, ptr %109, align 4
  %111 = zext i32 %110 to i64
  %112 = getelementptr inbounds i8, ptr %107, i64 %111
  store ptr %104, ptr %112, align 8
  %113 = load ptr, ptr %10, align 8
  store ptr %113, ptr %3, align 8
  br label %114

114:                                              ; preds = %103, %100, %99, %65
  %115 = load ptr, ptr %3, align 8
  ret ptr %115
}