; Function Attrs: nounwind uwtable
define hidden ptr @zend_jit_check_constant(ptr nocapture noundef readonly %0) local_unnamed_addr #0 {
  %2 = load ptr, ptr getelementptr inbounds (%struct._zend_executor_globals, ptr @executor_globals, i64 0, i32 17), align 8
  %3 = load ptr, ptr %2, align 8
  %4 = load ptr, ptr getelementptr inbounds (%struct._zend_executor_globals, ptr @executor_globals, i64 0, i32 12), align 8
  %5 = load ptr, ptr %0, align 8
  %6 = tail call ptr @zend_hash_find_known_hash(ptr noundef %4, ptr noundef %5) #6
  %.not = icmp eq ptr %6, null
  br i1 %.not, label %.thread, label %7

7:                                                ; preds = %1
  %8 = load ptr, ptr %6, align 8
  %.not30 = icmp eq ptr %8, null
  br i1 %.not30, label %.thread, label %16

.thread:                                          ; preds = %1, %7
  %9 = load ptr, ptr getelementptr inbounds (%struct._zend_executor_globals, ptr @executor_globals, i64 0, i32 12), align 8
  %10 = getelementptr inbounds i8, ptr %9, i64 28
  %11 = load i32, ptr %10, align 4
  %12 = zext i32 %11 to i64
  %13 = shl nuw nsw i64 %12, 1
  %14 = or disjoint i64 %13, 1
  %15 = inttoptr i64 %14 to ptr
  br label %16

16:                                               ; preds = %7, %.thread
  %.sink = phi ptr [ %15, %.thread ], [ %8, %7 ]
  %.0 = phi ptr [ null, %.thread ], [ %8, %7 ]
  %17 = getelementptr inbounds i8, ptr %2, i64 64
  %18 = load ptr, ptr %17, align 8
  %19 = getelementptr inbounds i8, ptr %3, i64 20
  %20 = load i32, ptr %19, align 4
  %21 = zext i32 %20 to i64
  %22 = getelementptr inbounds i8, ptr %18, i64 %21
  store ptr %.sink, ptr %22, align 8
  ret ptr %.0
}